target datalayout = "e-m:e-p270:32:32-p271:32:32-p272:64:64-i64:64-i128:128-f80:128-n8:16:32:64-S128"
target triple = "x86_64-pc-linux-gnu"

%struct.xcgroup_t = type { ptr, ptr, ptr, i32, i32, i32 }

@g_step_cgpath = internal global [5 x [4096 x i8]] zeroinitializer, align 16
@int_cg = internal global [5 x [9 x %struct.xcgroup_t]] zeroinitializer, align 16
@.str.21 = private unnamed_addr constant [14 x i8] c"freezer.state\00", align 1
@.str.23 = private unnamed_addr constant [7 x i8] c"THAWED\00", align 1

; Function Attrs: nounwind uwtable
define dso_local i32 @cgroup_p_step_resume() #0 {
  %1 = alloca i32, align 4
  %2 = load i8, ptr @g_step_cgpath, align 16
  %3 = sext i8 %2 to i32
  %4 = icmp eq i32 %3, 0
  br i1 %4, label %5, label %6

5:                                                ; preds = %0
  store i32 -1, ptr %1, align 4
  br label %8

6:                                                ; preds = %0
  %7 = call i32 @common_cgroup_set_param(ptr noundef getelementptr inbounds ([9 x %struct.xcgroup_t], ptr @int_cg, i64 0, i64 4), ptr noundef @.str.21, ptr noundef @.str.23)
  store i32 %7, ptr %1, align 4
  br label %8

8:                                                ; preds = %6, %5
  %9 = load i32, ptr %1, align 4
  ret i32 %9
}